target datalayout = "e-m:e-p270:32:32-p271:32:32-p272:64:64-i64:64-i128:128-f80:128-n8:16:32:64-S128"
target triple = "x86_64-pc-linux-gnu"

; Function Attrs: nounwind uwtable
define dso_local void @mp_encode_lua_integer(ptr noundef %0, ptr noundef %1) #0 {
  %3 = alloca ptr, align 8
  %4 = alloca ptr, align 8
  %5 = alloca i64, align 8
  store ptr %0, ptr %3, align 8, !tbaa !17
  store ptr %1, ptr %4, align 8, !tbaa !19
  call void @llvm.lifetime.start.p0(i64 8, ptr %5) #6
  %6 = load ptr, ptr %3, align 8, !tbaa !17
  %7 = call i64 @lua_tointeger(ptr noundef %6, i32 noundef -1)
  store i64 %7, ptr %5, align 8, !tbaa !8
  %8 = load ptr, ptr %3, align 8, !tbaa !17
  %9 = load ptr, ptr %4, align 8, !tbaa !19
  %10 = load i64, ptr %5, align 8, !tbaa !8
  call void @mp_encode_int(ptr noundef %8, ptr noundef %9, i64 noundef %10)
  call void @llvm.lifetime.end.p0(i64 8, ptr %5) #6
  ret void
}

; Function Attrs: nounwind uwtable
define dso_local void @mp_encode_lua_number(ptr noundef %0, ptr noundef %1) #0 {
  %3 = alloca ptr, align 8
  %4 = alloca ptr, align 8
  %5 = alloca double, align 8
  store ptr %0, ptr %3, align 8, !tbaa !17
  store ptr %1, ptr %4, align 8, !tbaa !19
  call void @llvm.lifetime.start.p0(i64 8, ptr %5) #6
  %6 = load ptr, ptr %3, align 8, !tbaa !17
  %7 = call double @lua_tonumber(ptr noundef %6, i32 noundef -1)
  store double %7, ptr %5, align 8, !tbaa !31
  %8 = load double, ptr %5, align 8, !tbaa !31
  %9 = call double @llvm.fabs.f64(double %8) #8
  %10 = fcmp oeq double %9, 0x7FF0000000000000
  %11 = bitcast double %8 to i64
  %12 = icmp slt i64 %11, 0
  %13 = select i1 %12, i32 -1, i32 1
  %14 = select i1 %10, i32 %13, i32 0
  %15 = icmp ne i32 %14, 0
  br i1 %15, label %25, label %16

16:                                               ; preds = %2
  %17 = load double, ptr %5, align 8, !tbaa !31
  %18 = fptosi double %17 to i64
  %19 = sitofp i64 %18 to double
  %20 = load double, ptr %5, align 8, !tbaa !31
  %21 = fcmp oeq double %19, %20
  br i1 %21, label %22, label %25

22:                                               ; preds = %16
  %23 = load ptr, ptr %3, align 8, !tbaa !17
  %24 = load ptr, ptr %4, align 8, !tbaa !19
  call void @mp_encode_lua_integer(ptr noundef %23, ptr noundef %24)
  br label %29

25:                                               ; preds = %16, %2
  %26 = load ptr, ptr %3, align 8, !tbaa !17
  %27 = load ptr, ptr %4, align 8, !tbaa !19
  %28 = load double, ptr %5, align 8, !tbaa !31
  call void @mp_encode_double(ptr noundef %26, ptr noundef %27, double noundef %28)
  br label %29

29:                                               ; preds = %25, %22
  call void @llvm.lifetime.end.p0(i64 8, ptr %5) #6
  ret void
}