; Function Attrs: nounwind uwtable
define dso_local void @mp_encode_lua_number(ptr noundef %0, ptr noundef captures(none) %1) local_unnamed_addr #2 {
  %3 = tail call double @lua_tonumber(ptr noundef %0, i32 noundef -1) #10
  %4 = tail call double @llvm.fabs.f64(double %3) #12
  %5 = fcmp oeq double %4, 0x7FF0000000000000
  br i1 %5, label %12, label %6

6:                                                ; preds = %2
  %7 = fptosi double %3 to i64
  %8 = sitofp i64 %7 to double
  %9 = fcmp oeq double %3, %8
  br i1 %9, label %10, label %12

10:                                               ; preds = %6
  %11 = tail call i64 @lua_tointeger(ptr noundef %0, i32 noundef -1) #10
  tail call void @mp_encode_int(ptr noundef %0, ptr noundef %1, i64 noundef %11)
  br label %13

12:                                               ; preds = %6, %2
  tail call void @mp_encode_double(ptr noundef %0, ptr noundef %1, double noundef %3)
  br label %13

13:                                               ; preds = %12, %10
  ret void
}